#include <math.h>
#include <stdio.h>
#include <stdlib.h>
#include <string.h>
#include <iostream>
using namespace std;

int main()
{
	char str[300], subStr[10], re[10];
	int i, j, lenth, m, n;
	int flag = 0;
	cin >> str >> subStr >> re;
	lenth = strlen(str);
	n = strlen(subStr);
	m = strlen(re);
	for (i = 0; i < lenth; i++)
	{
		j = 0;
		if (str[i] == subStr[j])
		{
			for (j = 0; j < n; j++)
			{
				if (str[i] == subStr[j])
					i++;
				else
					break;
			}
		}
		if (j == n)
		{
			flag = 1;
			for ( ; j > 0; i--, j--)
			{
				str[i - 1] = re[j - 1];
			}
		}
		if (flag == 1)
		{
			break;
		}
	}
	cout << str;
	return 0;
}
	



