; ModuleID = 'source-C-CXX/6/1229.cpp'
source_filename = "source-C-CXX/6/1229.cpp"
target datalayout = "e-m:e-p270:32:32-p271:32:32-p272:64:64-i64:64-f80:128-n8:16:32:64-S128"
target triple = "x86_64-pc-linux-gnu"

%"class.std::ios_base::Init" = type { i8 }
%"class.std::basic_istream" = type { i32 (...)**, i64, %"class.std::basic_ios" }
%"class.std::basic_ios" = type { %"class.std::ios_base", %"class.std::basic_ostream"*, i8, i8, %"class.std::basic_streambuf"*, %"class.std::ctype"*, %"class.std::num_put"*, %"class.std::num_get"* }
%"class.std::ios_base" = type { i32 (...)**, i64, i64, i32, i32, i32, %"struct.std::ios_base::_Callback_list"*, %"struct.std::ios_base::_Words", [8 x %"struct.std::ios_base::_Words"], i32, %"struct.std::ios_base::_Words"*, %"class.std::locale" }
%"struct.std::ios_base::_Callback_list" = type { %"struct.std::ios_base::_Callback_list"*, void (i32, %"class.std::ios_base"*, i32)*, i32, i32 }
%"struct.std::ios_base::_Words" = type { i8*, i64 }
%"class.std::locale" = type { %"class.std::locale::_Impl"* }
%"class.std::locale::_Impl" = type { i32, %"class.std::locale::facet"**, i64, %"class.std::locale::facet"**, i8** }
%"class.std::locale::facet" = type <{ i32 (...)**, i32, [4 x i8] }>
%"class.std::basic_ostream" = type { i32 (...)**, %"class.std::basic_ios" }
%"class.std::basic_streambuf" = type { i32 (...)**, i8*, i8*, i8*, i8*, i8*, i8*, %"class.std::locale" }
%"class.std::ctype" = type <{ %"class.std::locale::facet.base", [4 x i8], %struct.__locale_struct*, i8, [7 x i8], i32*, i32*, i16*, i8, [256 x i8], [256 x i8], i8, [6 x i8] }>
%"class.std::locale::facet.base" = type <{ i32 (...)**, i32 }>
%struct.__locale_struct = type { [13 x %struct.__locale_data*], i16*, i32*, i32*, [13 x i8*] }
%struct.__locale_data = type opaque
%"class.std::num_put" = type { %"class.std::locale::facet.base", [4 x i8] }
%"class.std::num_get" = type { %"class.std::locale::facet.base", [4 x i8] }

@_ZStL8__ioinit = internal global %"class.std::ios_base::Init" zeroinitializer, align 1
@__dso_handle = external hidden global i8
@_ZSt3cin = external global %"class.std::basic_istream", align 8
@_ZSt4cout = external global %"class.std::basic_ostream", align 8
@llvm.global_ctors = appending global [1 x { i32, void ()*, i8* }] [{ i32, void ()*, i8* } { i32 65535, void ()* @_GLOBAL__sub_I_1229.cpp, i8* null }]

declare void @_ZNSt8ios_base4InitC1Ev(%"class.std::ios_base::Init"* nonnull align 1 dereferenceable(1)) unnamed_addr #0

; Function Attrs: nounwind
declare void @_ZNSt8ios_base4InitD1Ev(%"class.std::ios_base::Init"* nonnull align 1 dereferenceable(1)) unnamed_addr #1

; Function Attrs: nofree nounwind
declare i32 @__cxa_atexit(void (i8*)*, i8*, i8*) local_unnamed_addr #2

; Function Attrs: mustprogress norecurse sspstrong uwtable
define dso_local i32 @main() local_unnamed_addr #3 {
  %1 = alloca [300 x i8], align 16
  %2 = alloca [10 x i8], align 1
  %3 = alloca [10 x i8], align 1
  %4 = getelementptr inbounds [10 x i8], [10 x i8]* %3, i64 0, i64 0
  %5 = getelementptr inbounds [300 x i8], [300 x i8]* %1, i64 0, i64 0
  call void @llvm.lifetime.start.p0i8(i64 300, i8* nonnull %5) #8
  %6 = getelementptr inbounds [10 x i8], [10 x i8]* %2, i64 0, i64 0
  call void @llvm.lifetime.start.p0i8(i64 10, i8* nonnull %6) #8
  %7 = getelementptr inbounds [10 x i8], [10 x i8]* %3, i64 0, i64 0
  call void @llvm.lifetime.start.p0i8(i64 10, i8* nonnull %7) #8
  call void @_ZSt17__istream_extractRSiPcl(%"class.std::basic_istream"* nonnull align 8 dereferenceable(16) @_ZSt3cin, i8* nonnull %5, i64 300)
  call void @_ZSt17__istream_extractRSiPcl(%"class.std::basic_istream"* nonnull align 8 dereferenceable(16) @_ZSt3cin, i8* nonnull %6, i64 10)
  call void @_ZSt17__istream_extractRSiPcl(%"class.std::basic_istream"* nonnull align 8 dereferenceable(16) @_ZSt3cin, i8* nonnull %7, i64 10)
  %8 = call i64 @strlen(i8* noundef nonnull %5) #9
  %9 = trunc i64 %8 to i32
  %10 = call i64 @strlen(i8* noundef nonnull %6) #9
  %11 = trunc i64 %10 to i32
  %12 = load i8, i8* %6, align 1
  %13 = icmp sgt i32 %9, 0
  %14 = icmp sgt i32 %11, 0
  %15 = select i1 %13, i1 %14, i1 false
  br i1 %15, label %16, label %63

16:                                               ; preds = %0
  %17 = getelementptr [300 x i8], [300 x i8]* %1, i64 0, i64 -1
  %18 = and i64 %10, 4294967295
  %19 = getelementptr inbounds [10 x i8], [10 x i8]* %2, i64 0, i64 0
  %20 = load i8, i8* %19, align 1
  %21 = icmp eq i8 %12, %20
  br label %22

22:                                               ; preds = %16, %48
  %23 = phi i32 [ %49, %48 ], [ 0, %16 ]
  %24 = sext i32 %23 to i64
  %25 = getelementptr inbounds [300 x i8], [300 x i8]* %1, i64 0, i64 %24
  %26 = load i8, i8* %25, align 1, !tbaa !5
  %27 = icmp eq i8 %26, %12
  br i1 %27, label %28, label %34

28:                                               ; preds = %22
  br i1 %21, label %51, label %29

29:                                               ; preds = %57, %28
  %30 = phi i64 [ 0, %28 ], [ %55, %57 ]
  %31 = phi i64 [ %24, %28 ], [ %54, %57 ]
  %32 = trunc i64 %31 to i32
  %33 = trunc i64 %30 to i32
  br label %34

34:                                               ; preds = %29, %22
  %35 = phi i32 [ 0, %22 ], [ %33, %29 ]
  %36 = phi i32 [ %23, %22 ], [ %32, %29 ]
  %37 = icmp eq i32 %35, %11
  br i1 %37, label %40, label %48

38:                                               ; preds = %51
  %39 = add i32 %23, %11
  br label %40

40:                                               ; preds = %34, %38
  %41 = phi i32 [ %39, %38 ], [ %36, %34 ]
  %42 = sext i32 %41 to i64
  %43 = add i64 %10, 4294967295
  %44 = and i64 %43, 4294967295
  %45 = sub nsw i64 %42, %44
  %46 = getelementptr i8, i8* %17, i64 %45
  %47 = and i64 %10, 4294967295
  call void @llvm.memcpy.p0i8.p0i8.i64(i8* align 1 %46, i8* nonnull align 1 %4, i64 %47, i1 false)
  br label %63

48:                                               ; preds = %34
  %49 = add nsw i32 %36, 1
  %50 = icmp slt i32 %49, %9
  br i1 %50, label %22, label %63, !llvm.loop !8

51:                                               ; preds = %28, %57
  %52 = phi i64 [ %54, %57 ], [ %24, %28 ]
  %53 = phi i64 [ %55, %57 ], [ 0, %28 ]
  %54 = add nsw i64 %52, 1
  %55 = add nuw nsw i64 %53, 1
  %56 = icmp eq i64 %55, %18
  br i1 %56, label %38, label %57, !llvm.loop !10

57:                                               ; preds = %51
  %58 = getelementptr inbounds [300 x i8], [300 x i8]* %1, i64 0, i64 %54
  %59 = load i8, i8* %58, align 1, !tbaa !5
  %60 = getelementptr inbounds [10 x i8], [10 x i8]* %2, i64 0, i64 %55
  %61 = load i8, i8* %60, align 1, !tbaa !5
  %62 = icmp eq i8 %59, %61
  br i1 %62, label %51, label %29

63:                                               ; preds = %48, %40, %0
  %64 = call i64 @strlen(i8* noundef nonnull dereferenceable(1) %5) #8
  %65 = call nonnull align 8 dereferenceable(8) %"class.std::basic_ostream"* @_ZSt16__ostream_insertIcSt11char_traitsIcEERSt13basic_ostreamIT_T0_ES6_PKS3_l(%"class.std::basic_ostream"* nonnull align 8 dereferenceable(8) @_ZSt4cout, i8* nonnull %5, i64 %64)
  call void @llvm.lifetime.end.p0i8(i64 10, i8* nonnull %7) #8
  call void @llvm.lifetime.end.p0i8(i64 10, i8* nonnull %6) #8
  call void @llvm.lifetime.end.p0i8(i64 300, i8* nonnull %5) #8
  ret i32 0
}

; Function Attrs: argmemonly mustprogress nofree nosync nounwind willreturn
declare void @llvm.lifetime.start.p0i8(i64 immarg, i8* nocapture) #4

; Function Attrs: argmemonly mustprogress nofree nounwind readonly willreturn
declare i64 @strlen(i8* nocapture) local_unnamed_addr #5

; Function Attrs: argmemonly mustprogress nofree nosync nounwind willreturn
declare void @llvm.lifetime.end.p0i8(i64 immarg, i8* nocapture) #4

declare void @_ZSt17__istream_extractRSiPcl(%"class.std::basic_istream"* nonnull align 8 dereferenceable(16), i8*, i64) local_unnamed_addr #0

declare nonnull align 8 dereferenceable(8) %"class.std::basic_ostream"* @_ZSt16__ostream_insertIcSt11char_traitsIcEERSt13basic_ostreamIT_T0_ES6_PKS3_l(%"class.std::basic_ostream"* nonnull align 8 dereferenceable(8), i8*, i64) local_unnamed_addr #0

; Function Attrs: sspstrong uwtable
define internal void @_GLOBAL__sub_I_1229.cpp() #6 section ".text.startup" {
  tail call void @_ZNSt8ios_base4InitC1Ev(%"class.std::ios_base::Init"* nonnull align 1 dereferenceable(1) @_ZStL8__ioinit)
  %1 = tail call i32 @__cxa_atexit(void (i8*)* bitcast (void (%"class.std::ios_base::Init"*)* @_ZNSt8ios_base4InitD1Ev to void (i8*)*), i8* getelementptr inbounds (%"class.std::ios_base::Init", %"class.std::ios_base::Init"* @_ZStL8__ioinit, i64 0, i32 0), i8* nonnull @__dso_handle) #8
  ret void
}

; Function Attrs: argmemonly nofree nounwind willreturn
declare void @llvm.memcpy.p0i8.p0i8.i64(i8* noalias nocapture writeonly, i8* noalias nocapture readonly, i64, i1 immarg) #7


!llvm.module.flags = !{!0, !1, !2, !3}
!llvm.ident = !{!4}

!0 = !{i32 1, !"wchar_size", i32 4}
!1 = !{i32 7, !"PIC Level", i32 2}
!2 = !{i32 7, !"PIE Level", i32 2}
!3 = !{i32 7, !"uwtable", i32 1}
!4 = !{!"clang version 13.0.0"}
!5 = !{!6, !6, i64 0}
!6 = !{!"omnipotent char", !7, i64 0}
!7 = !{!"Simple C++ TBAA"}
!8 = distinct !{!8, !9}
!9 = !{!"llvm.loop.mustprogress"}
!10 = distinct !{!10, !9}
